; Function Attrs: mustprogress nofree norecurse nosync nounwind willreturn memory(argmem: readwrite) uwtable
define internal void @_ZL18latlong_inverse_3d6PJ_XYZP8PJconsts(ptr dead_on_unwind noalias writable writeonly sret(%struct.PJ_LPZ) align 8 captures(none) initializes((0, 24)) %0, ptr noundef readonly byval(%struct.PJ_XYZ) align 8 captures(none) %1, ptr readnone captures(none) %2) #4 {
  %4 = load double, ptr %1, align 8, !tbaa !47
  store double %4, ptr %0, align 8, !tbaa !49
  %5 = getelementptr inbounds nuw i8, ptr %1, i64 8
  %6 = load double, ptr %5, align 8, !tbaa !51
  %7 = getelementptr inbounds nuw i8, ptr %0, i64 8
  store double %6, ptr %7, align 8, !tbaa !52
  %8 = getelementptr inbounds nuw i8, ptr %1, i64 16
  %9 = load double, ptr %8, align 8, !tbaa !53
  %10 = getelementptr inbounds nuw i8, ptr %0, i64 16
  store double %9, ptr %10, align 8, !tbaa !54
  ret void
}